target datalayout = "e-m:e-p270:32:32-p271:32:32-p272:64:64-i64:64-i128:128-f80:128-n8:16:32:64-S128"
target triple = "x86_64-pc-linux-gnu"

%struct.MD5state_st = type { i32, i32, i32, i32, i32, i32, [16 x i32], i32 }

; Function Attrs: nounwind uwtable
define internal void @tls1_md5_final_raw(ptr noundef %0, ptr noundef %1) #0 {
  %3 = alloca ptr, align 8
  %4 = alloca ptr, align 8
  %5 = alloca ptr, align 8
  store ptr %0, ptr %3, align 8, !tbaa !19
  store ptr %1, ptr %4, align 8, !tbaa !8
  call void @llvm.lifetime.start.p0(i64 8, ptr %5) #7
  %6 = load ptr, ptr %3, align 8, !tbaa !19
  store ptr %6, ptr %5, align 8, !tbaa !28
  %7 = load ptr, ptr %5, align 8, !tbaa !28
  %8 = getelementptr inbounds nuw %struct.MD5state_st, ptr %7, i32 0, i32 0
  %9 = load i32, ptr %8, align 4, !tbaa !30
  %10 = trunc i32 %9 to i8
  %11 = load ptr, ptr %4, align 8, !tbaa !8
  %12 = getelementptr inbounds nuw i8, ptr %11, i32 1
  store ptr %12, ptr %4, align 8, !tbaa !8
  store i8 %10, ptr %11, align 1, !tbaa !14
  %13 = load ptr, ptr %5, align 8, !tbaa !28
  %14 = getelementptr inbounds nuw %struct.MD5state_st, ptr %13, i32 0, i32 0
  %15 = load i32, ptr %14, align 4, !tbaa !30
  %16 = lshr i32 %15, 8
  %17 = trunc i32 %16 to i8
  %18 = load ptr, ptr %4, align 8, !tbaa !8
  %19 = getelementptr inbounds nuw i8, ptr %18, i32 1
  store ptr %19, ptr %4, align 8, !tbaa !8
  store i8 %17, ptr %18, align 1, !tbaa !14
  %20 = load ptr, ptr %5, align 8, !tbaa !28
  %21 = getelementptr inbounds nuw %struct.MD5state_st, ptr %20, i32 0, i32 0
  %22 = load i32, ptr %21, align 4, !tbaa !30
  %23 = lshr i32 %22, 16
  %24 = trunc i32 %23 to i8
  %25 = load ptr, ptr %4, align 8, !tbaa !8
  %26 = getelementptr inbounds nuw i8, ptr %25, i32 1
  store ptr %26, ptr %4, align 8, !tbaa !8
  store i8 %24, ptr %25, align 1, !tbaa !14
  %27 = load ptr, ptr %5, align 8, !tbaa !28
  %28 = getelementptr inbounds nuw %struct.MD5state_st, ptr %27, i32 0, i32 0
  %29 = load i32, ptr %28, align 4, !tbaa !30
  %30 = lshr i32 %29, 24
  %31 = trunc i32 %30 to i8
  %32 = load ptr, ptr %4, align 8, !tbaa !8
  %33 = getelementptr inbounds nuw i8, ptr %32, i32 1
  store ptr %33, ptr %4, align 8, !tbaa !8
  store i8 %31, ptr %32, align 1, !tbaa !14
  %34 = load ptr, ptr %5, align 8, !tbaa !28
  %35 = getelementptr inbounds nuw %struct.MD5state_st, ptr %34, i32 0, i32 1
  %36 = load i32, ptr %35, align 4, !tbaa !32
  %37 = trunc i32 %36 to i8
  %38 = load ptr, ptr %4, align 8, !tbaa !8
  %39 = getelementptr inbounds nuw i8, ptr %38, i32 1
  store ptr %39, ptr %4, align 8, !tbaa !8
  store i8 %37, ptr %38, align 1, !tbaa !14
  %40 = load ptr, ptr %5, align 8, !tbaa !28
  %41 = getelementptr inbounds nuw %struct.MD5state_st, ptr %40, i32 0, i32 1
  %42 = load i32, ptr %41, align 4, !tbaa !32
  %43 = lshr i32 %42, 8
  %44 = trunc i32 %43 to i8
  %45 = load ptr, ptr %4, align 8, !tbaa !8
  %46 = getelementptr inbounds nuw i8, ptr %45, i32 1
  store ptr %46, ptr %4, align 8, !tbaa !8
  store i8 %44, ptr %45, align 1, !tbaa !14
  %47 = load ptr, ptr %5, align 8, !tbaa !28
  %48 = getelementptr inbounds nuw %struct.MD5state_st, ptr %47, i32 0, i32 1
  %49 = load i32, ptr %48, align 4, !tbaa !32
  %50 = lshr i32 %49, 16
  %51 = trunc i32 %50 to i8
  %52 = load ptr, ptr %4, align 8, !tbaa !8
  %53 = getelementptr inbounds nuw i8, ptr %52, i32 1
  store ptr %53, ptr %4, align 8, !tbaa !8
  store i8 %51, ptr %52, align 1, !tbaa !14
  %54 = load ptr, ptr %5, align 8, !tbaa !28
  %55 = getelementptr inbounds nuw %struct.MD5state_st, ptr %54, i32 0, i32 1
  %56 = load i32, ptr %55, align 4, !tbaa !32
  %57 = lshr i32 %56, 24
  %58 = trunc i32 %57 to i8
  %59 = load ptr, ptr %4, align 8, !tbaa !8
  %60 = getelementptr inbounds nuw i8, ptr %59, i32 1
  store ptr %60, ptr %4, align 8, !tbaa !8
  store i8 %58, ptr %59, align 1, !tbaa !14
  %61 = load ptr, ptr %5, align 8, !tbaa !28
  %62 = getelementptr inbounds nuw %struct.MD5state_st, ptr %61, i32 0, i32 2
  %63 = load i32, ptr %62, align 4, !tbaa !33
  %64 = trunc i32 %63 to i8
  %65 = load ptr, ptr %4, align 8, !tbaa !8
  %66 = getelementptr inbounds nuw i8, ptr %65, i32 1
  store ptr %66, ptr %4, align 8, !tbaa !8
  store i8 %64, ptr %65, align 1, !tbaa !14
  %67 = load ptr, ptr %5, align 8, !tbaa !28
  %68 = getelementptr inbounds nuw %struct.MD5state_st, ptr %67, i32 0, i32 2
  %69 = load i32, ptr %68, align 4, !tbaa !33
  %70 = lshr i32 %69, 8
  %71 = trunc i32 %70 to i8
  %72 = load ptr, ptr %4, align 8, !tbaa !8
  %73 = getelementptr inbounds nuw i8, ptr %72, i32 1
  store ptr %73, ptr %4, align 8, !tbaa !8
  store i8 %71, ptr %72, align 1, !tbaa !14
  %74 = load ptr, ptr %5, align 8, !tbaa !28
  %75 = getelementptr inbounds nuw %struct.MD5state_st, ptr %74, i32 0, i32 2
  %76 = load i32, ptr %75, align 4, !tbaa !33
  %77 = lshr i32 %76, 16
  %78 = trunc i32 %77 to i8
  %79 = load ptr, ptr %4, align 8, !tbaa !8
  %80 = getelementptr inbounds nuw i8, ptr %79, i32 1
  store ptr %80, ptr %4, align 8, !tbaa !8
  store i8 %78, ptr %79, align 1, !tbaa !14
  %81 = load ptr, ptr %5, align 8, !tbaa !28
  %82 = getelementptr inbounds nuw %struct.MD5state_st, ptr %81, i32 0, i32 2
  %83 = load i32, ptr %82, align 4, !tbaa !33
  %84 = lshr i32 %83, 24
  %85 = trunc i32 %84 to i8
  %86 = load ptr, ptr %4, align 8, !tbaa !8
  %87 = getelementptr inbounds nuw i8, ptr %86, i32 1
  store ptr %87, ptr %4, align 8, !tbaa !8
  store i8 %85, ptr %86, align 1, !tbaa !14
  %88 = load ptr, ptr %5, align 8, !tbaa !28
  %89 = getelementptr inbounds nuw %struct.MD5state_st, ptr %88, i32 0, i32 3
  %90 = load i32, ptr %89, align 4, !tbaa !34
  %91 = trunc i32 %90 to i8
  %92 = load ptr, ptr %4, align 8, !tbaa !8
  %93 = getelementptr inbounds nuw i8, ptr %92, i32 1
  store ptr %93, ptr %4, align 8, !tbaa !8
  store i8 %91, ptr %92, align 1, !tbaa !14
  %94 = load ptr, ptr %5, align 8, !tbaa !28
  %95 = getelementptr inbounds nuw %struct.MD5state_st, ptr %94, i32 0, i32 3
  %96 = load i32, ptr %95, align 4, !tbaa !34
  %97 = lshr i32 %96, 8
  %98 = trunc i32 %97 to i8
  %99 = load ptr, ptr %4, align 8, !tbaa !8
  %100 = getelementptr inbounds nuw i8, ptr %99, i32 1
  store ptr %100, ptr %4, align 8, !tbaa !8
  store i8 %98, ptr %99, align 1, !tbaa !14
  %101 = load ptr, ptr %5, align 8, !tbaa !28
  %102 = getelementptr inbounds nuw %struct.MD5state_st, ptr %101, i32 0, i32 3
  %103 = load i32, ptr %102, align 4, !tbaa !34
  %104 = lshr i32 %103, 16
  %105 = trunc i32 %104 to i8
  %106 = load ptr, ptr %4, align 8, !tbaa !8
  %107 = getelementptr inbounds nuw i8, ptr %106, i32 1
  store ptr %107, ptr %4, align 8, !tbaa !8
  store i8 %105, ptr %106, align 1, !tbaa !14
  %108 = load ptr, ptr %5, align 8, !tbaa !28
  %109 = getelementptr inbounds nuw %struct.MD5state_st, ptr %108, i32 0, i32 3
  %110 = load i32, ptr %109, align 4, !tbaa !34
  %111 = lshr i32 %110, 24
  %112 = trunc i32 %111 to i8
  %113 = load ptr, ptr %4, align 8, !tbaa !8
  %114 = getelementptr inbounds nuw i8, ptr %113, i32 1
  store ptr %114, ptr %4, align 8, !tbaa !8
  store i8 %112, ptr %113, align 1, !tbaa !14
  call void @llvm.lifetime.end.p0(i64 8, ptr %5) #7
  ret void
}