; Function Attrs: mustprogress nofree norecurse nosync nounwind willreturn memory(argmem: readwrite) uwtable
define internal void @tls1_md5_final_raw(ptr noundef readonly captures(none) %0, ptr noundef writeonly captures(none) initializes((0, 16)) %1) unnamed_addr #3 {
  %3 = load i32, ptr %0, align 4, !tbaa !22
  %4 = trunc i32 %3 to i8
  %5 = getelementptr inbounds nuw i8, ptr %1, i64 1
  store i8 %4, ptr %1, align 1, !tbaa !8
  %6 = load i32, ptr %0, align 4, !tbaa !22
  %7 = lshr i32 %6, 8
  %8 = trunc i32 %7 to i8
  %9 = getelementptr inbounds nuw i8, ptr %1, i64 2
  store i8 %8, ptr %5, align 1, !tbaa !8
  %10 = load i32, ptr %0, align 4, !tbaa !22
  %11 = lshr i32 %10, 16
  %12 = trunc i32 %11 to i8
  %13 = getelementptr inbounds nuw i8, ptr %1, i64 3
  store i8 %12, ptr %9, align 1, !tbaa !8
  %14 = load i32, ptr %0, align 4, !tbaa !22
  %15 = lshr i32 %14, 24
  %16 = trunc nuw i32 %15 to i8
  %17 = getelementptr inbounds nuw i8, ptr %1, i64 4
  store i8 %16, ptr %13, align 1, !tbaa !8
  %18 = getelementptr inbounds nuw i8, ptr %0, i64 4
  %19 = load i32, ptr %18, align 4, !tbaa !24
  %20 = trunc i32 %19 to i8
  %21 = getelementptr inbounds nuw i8, ptr %1, i64 5
  store i8 %20, ptr %17, align 1, !tbaa !8
  %22 = load i32, ptr %18, align 4, !tbaa !24
  %23 = lshr i32 %22, 8
  %24 = trunc i32 %23 to i8
  %25 = getelementptr inbounds nuw i8, ptr %1, i64 6
  store i8 %24, ptr %21, align 1, !tbaa !8
  %26 = load i32, ptr %18, align 4, !tbaa !24
  %27 = lshr i32 %26, 16
  %28 = trunc i32 %27 to i8
  %29 = getelementptr inbounds nuw i8, ptr %1, i64 7
  store i8 %28, ptr %25, align 1, !tbaa !8
  %30 = load i32, ptr %18, align 4, !tbaa !24
  %31 = lshr i32 %30, 24
  %32 = trunc nuw i32 %31 to i8
  %33 = getelementptr inbounds nuw i8, ptr %1, i64 8
  store i8 %32, ptr %29, align 1, !tbaa !8
  %34 = getelementptr inbounds nuw i8, ptr %0, i64 8
  %35 = load i32, ptr %34, align 4, !tbaa !25
  %36 = trunc i32 %35 to i8
  %37 = getelementptr inbounds nuw i8, ptr %1, i64 9
  store i8 %36, ptr %33, align 1, !tbaa !8
  %38 = load i32, ptr %34, align 4, !tbaa !25
  %39 = lshr i32 %38, 8
  %40 = trunc i32 %39 to i8
  %41 = getelementptr inbounds nuw i8, ptr %1, i64 10
  store i8 %40, ptr %37, align 1, !tbaa !8
  %42 = load i32, ptr %34, align 4, !tbaa !25
  %43 = lshr i32 %42, 16
  %44 = trunc i32 %43 to i8
  %45 = getelementptr inbounds nuw i8, ptr %1, i64 11
  store i8 %44, ptr %41, align 1, !tbaa !8
  %46 = load i32, ptr %34, align 4, !tbaa !25
  %47 = lshr i32 %46, 24
  %48 = trunc nuw i32 %47 to i8
  %49 = getelementptr inbounds nuw i8, ptr %1, i64 12
  store i8 %48, ptr %45, align 1, !tbaa !8
  %50 = getelementptr inbounds nuw i8, ptr %0, i64 12
  %51 = load i32, ptr %50, align 4, !tbaa !26
  %52 = trunc i32 %51 to i8
  %53 = getelementptr inbounds nuw i8, ptr %1, i64 13
  store i8 %52, ptr %49, align 1, !tbaa !8
  %54 = load i32, ptr %50, align 4, !tbaa !26
  %55 = lshr i32 %54, 8
  %56 = trunc i32 %55 to i8
  %57 = getelementptr inbounds nuw i8, ptr %1, i64 14
  store i8 %56, ptr %53, align 1, !tbaa !8
  %58 = load i32, ptr %50, align 4, !tbaa !26
  %59 = lshr i32 %58, 16
  %60 = trunc i32 %59 to i8
  %61 = getelementptr inbounds nuw i8, ptr %1, i64 15
  store i8 %60, ptr %57, align 1, !tbaa !8
  %62 = load i32, ptr %50, align 4, !tbaa !26
  %63 = lshr i32 %62, 24
  %64 = trunc nuw i32 %63 to i8
  store i8 %64, ptr %61, align 1, !tbaa !8
  ret void
}